target datalayout = "e-m:e-p270:32:32-p271:32:32-p272:64:64-i64:64-i128:128-f80:128-n8:16:32:64-S128"
target triple = "x86_64-pc-linux-gnu"

%struct.smart_string = type { ptr, i64, i64 }

@.str.1 = private unnamed_addr constant [21 x i8] c"String size overflow\00", align 1

; Function Attrs: nounwind uwtable
define void @_smart_string_alloc(ptr noundef %0, i64 noundef %1) #0 {
  %3 = alloca ptr, align 8
  %4 = alloca i64, align 8
  store ptr %0, ptr %3, align 8
  store i64 %1, ptr %4, align 8
  %5 = load ptr, ptr %3, align 8
  %6 = getelementptr inbounds %struct.smart_string, ptr %5, i32 0, i32 0
  %7 = load ptr, ptr %6, align 8
  %8 = icmp ne ptr %7, null
  br i1 %8, label %383, label %9

9:                                                ; preds = %2
  %10 = load ptr, ptr %3, align 8
  %11 = getelementptr inbounds %struct.smart_string, ptr %10, i32 0, i32 1
  store i64 0, ptr %11, align 8
  %12 = load i64, ptr %4, align 8
  %13 = icmp ule i64 %12, 255
  br i1 %13, label %14, label %20

14:                                               ; preds = %9
  %15 = load ptr, ptr %3, align 8
  %16 = getelementptr inbounds %struct.smart_string, ptr %15, i32 0, i32 2
  store i64 255, ptr %16, align 8
  %17 = call noalias ptr @_emalloc_256()
  %18 = load ptr, ptr %3, align 8
  %19 = getelementptr inbounds %struct.smart_string, ptr %18, i32 0, i32 0
  store ptr %17, ptr %19, align 8
  br label %382

20:                                               ; preds = %9
  %21 = load i64, ptr %4, align 8
  %22 = add i64 %21, 1
  %23 = add i64 %22, 4095
  %24 = and i64 %23, -4096
  %25 = sub i64 %24, 1
  %26 = load ptr, ptr %3, align 8
  %27 = getelementptr inbounds %struct.smart_string, ptr %26, i32 0, i32 2
  store i64 %25, ptr %27, align 8
  %28 = load ptr, ptr %3, align 8
  %29 = getelementptr inbounds %struct.smart_string, ptr %28, i32 0, i32 2
  %30 = load i64, ptr %29, align 8
  %31 = icmp ult i64 %30, 2097151
  %32 = xor i1 %31, true
  %33 = xor i1 %32, true
  %34 = zext i1 %33 to i32
  %35 = sext i32 %34 to i64
  %36 = icmp ne i64 %35, 0
  br i1 %36, label %37, label %45

37:                                               ; preds = %20
  %38 = load ptr, ptr %3, align 8
  %39 = getelementptr inbounds %struct.smart_string, ptr %38, i32 0, i32 2
  %40 = load i64, ptr %39, align 8
  %41 = add i64 %40, 1
  %42 = call noalias ptr @_emalloc_large(i64 noundef %41) #14
  %43 = load ptr, ptr %3, align 8
  %44 = getelementptr inbounds %struct.smart_string, ptr %43, i32 0, i32 0
  store ptr %42, ptr %44, align 8
  br label %381

45:                                               ; preds = %20
  %46 = load ptr, ptr %3, align 8
  %47 = getelementptr inbounds %struct.smart_string, ptr %46, i32 0, i32 2
  %48 = load i64, ptr %47, align 8
  %49 = add i64 %48, 1
  %50 = call i1 @llvm.is.constant.i64(i64 %49)
  br i1 %50, label %51, label %371

51:                                               ; preds = %45
  %52 = load ptr, ptr %3, align 8
  %53 = getelementptr inbounds %struct.smart_string, ptr %52, i32 0, i32 2
  %54 = load i64, ptr %53, align 8
  %55 = add i64 %54, 1
  %56 = icmp ule i64 %55, 8
  br i1 %56, label %57, label %59

57:                                               ; preds = %51
  %58 = call noalias ptr @_emalloc_8()
  br label %369

59:                                               ; preds = %51
  %60 = load ptr, ptr %3, align 8
  %61 = getelementptr inbounds %struct.smart_string, ptr %60, i32 0, i32 2
  %62 = load i64, ptr %61, align 8
  %63 = add i64 %62, 1
  %64 = icmp ule i64 %63, 16
  br i1 %64, label %65, label %67

65:                                               ; preds = %59
  %66 = call noalias ptr @_emalloc_16()
  br label %367

67:                                               ; preds = %59
  %68 = load ptr, ptr %3, align 8
  %69 = getelementptr inbounds %struct.smart_string, ptr %68, i32 0, i32 2
  %70 = load i64, ptr %69, align 8
  %71 = add i64 %70, 1
  %72 = icmp ule i64 %71, 24
  br i1 %72, label %73, label %75

73:                                               ; preds = %67
  %74 = call noalias ptr @_emalloc_24()
  br label %365

75:                                               ; preds = %67
  %76 = load ptr, ptr %3, align 8
  %77 = getelementptr inbounds %struct.smart_string, ptr %76, i32 0, i32 2
  %78 = load i64, ptr %77, align 8
  %79 = add i64 %78, 1
  %80 = icmp ule i64 %79, 32
  br i1 %80, label %81, label %83

81:                                               ; preds = %75
  %82 = call noalias ptr @_emalloc_32()
  br label %363

83:                                               ; preds = %75
  %84 = load ptr, ptr %3, align 8
  %85 = getelementptr inbounds %struct.smart_string, ptr %84, i32 0, i32 2
  %86 = load i64, ptr %85, align 8
  %87 = add i64 %86, 1
  %88 = icmp ule i64 %87, 40
  br i1 %88, label %89, label %91

89:                                               ; preds = %83
  %90 = call noalias ptr @_emalloc_40()
  br label %361

91:                                               ; preds = %83
  %92 = load ptr, ptr %3, align 8
  %93 = getelementptr inbounds %struct.smart_string, ptr %92, i32 0, i32 2
  %94 = load i64, ptr %93, align 8
  %95 = add i64 %94, 1
  %96 = icmp ule i64 %95, 48
  br i1 %96, label %97, label %99

97:                                               ; preds = %91
  %98 = call noalias ptr @_emalloc_48()
  br label %359

99:                                               ; preds = %91
  %100 = load ptr, ptr %3, align 8
  %101 = getelementptr inbounds %struct.smart_string, ptr %100, i32 0, i32 2
  %102 = load i64, ptr %101, align 8
  %103 = add i64 %102, 1
  %104 = icmp ule i64 %103, 56
  br i1 %104, label %105, label %107

105:                                              ; preds = %99
  %106 = call noalias ptr @_emalloc_56()
  br label %357

107:                                              ; preds = %99
  %108 = load ptr, ptr %3, align 8
  %109 = getelementptr inbounds %struct.smart_string, ptr %108, i32 0, i32 2
  %110 = load i64, ptr %109, align 8
  %111 = add i64 %110, 1
  %112 = icmp ule i64 %111, 64
  br i1 %112, label %113, label %115

113:                                              ; preds = %107
  %114 = call noalias ptr @_emalloc_64()
  br label %355

115:                                              ; preds = %107
  %116 = load ptr, ptr %3, align 8
  %117 = getelementptr inbounds %struct.smart_string, ptr %116, i32 0, i32 2
  %118 = load i64, ptr %117, align 8
  %119 = add i64 %118, 1
  %120 = icmp ule i64 %119, 80
  br i1 %120, label %121, label %123

121:                                              ; preds = %115
  %122 = call noalias ptr @_emalloc_80()
  br label %353

123:                                              ; preds = %115
  %124 = load ptr, ptr %3, align 8
  %125 = getelementptr inbounds %struct.smart_string, ptr %124, i32 0, i32 2
  %126 = load i64, ptr %125, align 8
  %127 = add i64 %126, 1
  %128 = icmp ule i64 %127, 96
  br i1 %128, label %129, label %131

129:                                              ; preds = %123
  %130 = call noalias ptr @_emalloc_96()
  br label %351

131:                                              ; preds = %123
  %132 = load ptr, ptr %3, align 8
  %133 = getelementptr inbounds %struct.smart_string, ptr %132, i32 0, i32 2
  %134 = load i64, ptr %133, align 8
  %135 = add i64 %134, 1
  %136 = icmp ule i64 %135, 112
  br i1 %136, label %137, label %139

137:                                              ; preds = %131
  %138 = call noalias ptr @_emalloc_112()
  br label %349

139:                                              ; preds = %131
  %140 = load ptr, ptr %3, align 8
  %141 = getelementptr inbounds %struct.smart_string, ptr %140, i32 0, i32 2
  %142 = load i64, ptr %141, align 8
  %143 = add i64 %142, 1
  %144 = icmp ule i64 %143, 128
  br i1 %144, label %145, label %147

145:                                              ; preds = %139
  %146 = call noalias ptr @_emalloc_128()
  br label %347

147:                                              ; preds = %139
  %148 = load ptr, ptr %3, align 8
  %149 = getelementptr inbounds %struct.smart_string, ptr %148, i32 0, i32 2
  %150 = load i64, ptr %149, align 8
  %151 = add i64 %150, 1
  %152 = icmp ule i64 %151, 160
  br i1 %152, label %153, label %155

153:                                              ; preds = %147
  %154 = call noalias ptr @_emalloc_160()
  br label %345

155:                                              ; preds = %147
  %156 = load ptr, ptr %3, align 8
  %157 = getelementptr inbounds %struct.smart_string, ptr %156, i32 0, i32 2
  %158 = load i64, ptr %157, align 8
  %159 = add i64 %158, 1
  %160 = icmp ule i64 %159, 192
  br i1 %160, label %161, label %163

161:                                              ; preds = %155
  %162 = call noalias ptr @_emalloc_192()
  br label %343

163:                                              ; preds = %155
  %164 = load ptr, ptr %3, align 8
  %165 = getelementptr inbounds %struct.smart_string, ptr %164, i32 0, i32 2
  %166 = load i64, ptr %165, align 8
  %167 = add i64 %166, 1
  %168 = icmp ule i64 %167, 224
  br i1 %168, label %169, label %171

169:                                              ; preds = %163
  %170 = call noalias ptr @_emalloc_224()
  br label %341

171:                                              ; preds = %163
  %172 = load ptr, ptr %3, align 8
  %173 = getelementptr inbounds %struct.smart_string, ptr %172, i32 0, i32 2
  %174 = load i64, ptr %173, align 8
  %175 = add i64 %174, 1
  %176 = icmp ule i64 %175, 256
  br i1 %176, label %177, label %179

177:                                              ; preds = %171
  %178 = call noalias ptr @_emalloc_256()
  br label %339

179:                                              ; preds = %171
  %180 = load ptr, ptr %3, align 8
  %181 = getelementptr inbounds %struct.smart_string, ptr %180, i32 0, i32 2
  %182 = load i64, ptr %181, align 8
  %183 = add i64 %182, 1
  %184 = icmp ule i64 %183, 320
  br i1 %184, label %185, label %187

185:                                              ; preds = %179
  %186 = call noalias ptr @_emalloc_320()
  br label %337

187:                                              ; preds = %179
  %188 = load ptr, ptr %3, align 8
  %189 = getelementptr inbounds %struct.smart_string, ptr %188, i32 0, i32 2
  %190 = load i64, ptr %189, align 8
  %191 = add i64 %190, 1
  %192 = icmp ule i64 %191, 384
  br i1 %192, label %193, label %195

193:                                              ; preds = %187
  %194 = call noalias ptr @_emalloc_384()
  br label %335

195:                                              ; preds = %187
  %196 = load ptr, ptr %3, align 8
  %197 = getelementptr inbounds %struct.smart_string, ptr %196, i32 0, i32 2
  %198 = load i64, ptr %197, align 8
  %199 = add i64 %198, 1
  %200 = icmp ule i64 %199, 448
  br i1 %200, label %201, label %203

201:                                              ; preds = %195
  %202 = call noalias ptr @_emalloc_448()
  br label %333

203:                                              ; preds = %195
  %204 = load ptr, ptr %3, align 8
  %205 = getelementptr inbounds %struct.smart_string, ptr %204, i32 0, i32 2
  %206 = load i64, ptr %205, align 8
  %207 = add i64 %206, 1
  %208 = icmp ule i64 %207, 512
  br i1 %208, label %209, label %211

209:                                              ; preds = %203
  %210 = call noalias ptr @_emalloc_512()
  br label %331

211:                                              ; preds = %203
  %212 = load ptr, ptr %3, align 8
  %213 = getelementptr inbounds %struct.smart_string, ptr %212, i32 0, i32 2
  %214 = load i64, ptr %213, align 8
  %215 = add i64 %214, 1
  %216 = icmp ule i64 %215, 640
  br i1 %216, label %217, label %219

217:                                              ; preds = %211
  %218 = call noalias ptr @_emalloc_640()
  br label %329

219:                                              ; preds = %211
  %220 = load ptr, ptr %3, align 8
  %221 = getelementptr inbounds %struct.smart_string, ptr %220, i32 0, i32 2
  %222 = load i64, ptr %221, align 8
  %223 = add i64 %222, 1
  %224 = icmp ule i64 %223, 768
  br i1 %224, label %225, label %227

225:                                              ; preds = %219
  %226 = call noalias ptr @_emalloc_768()
  br label %327

227:                                              ; preds = %219
  %228 = load ptr, ptr %3, align 8
  %229 = getelementptr inbounds %struct.smart_string, ptr %228, i32 0, i32 2
  %230 = load i64, ptr %229, align 8
  %231 = add i64 %230, 1
  %232 = icmp ule i64 %231, 896
  br i1 %232, label %233, label %235

233:                                              ; preds = %227
  %234 = call noalias ptr @_emalloc_896()
  br label %325

235:                                              ; preds = %227
  %236 = load ptr, ptr %3, align 8
  %237 = getelementptr inbounds %struct.smart_string, ptr %236, i32 0, i32 2
  %238 = load i64, ptr %237, align 8
  %239 = add i64 %238, 1
  %240 = icmp ule i64 %239, 1024
  br i1 %240, label %241, label %243

241:                                              ; preds = %235
  %242 = call noalias ptr @_emalloc_1024()
  br label %323

243:                                              ; preds = %235
  %244 = load ptr, ptr %3, align 8
  %245 = getelementptr inbounds %struct.smart_string, ptr %244, i32 0, i32 2
  %246 = load i64, ptr %245, align 8
  %247 = add i64 %246, 1
  %248 = icmp ule i64 %247, 1280
  br i1 %248, label %249, label %251

249:                                              ; preds = %243
  %250 = call noalias ptr @_emalloc_1280()
  br label %321

251:                                              ; preds = %243
  %252 = load ptr, ptr %3, align 8
  %253 = getelementptr inbounds %struct.smart_string, ptr %252, i32 0, i32 2
  %254 = load i64, ptr %253, align 8
  %255 = add i64 %254, 1
  %256 = icmp ule i64 %255, 1536
  br i1 %256, label %257, label %259

257:                                              ; preds = %251
  %258 = call noalias ptr @_emalloc_1536()
  br label %319

259:                                              ; preds = %251
  %260 = load ptr, ptr %3, align 8
  %261 = getelementptr inbounds %struct.smart_string, ptr %260, i32 0, i32 2
  %262 = load i64, ptr %261, align 8
  %263 = add i64 %262, 1
  %264 = icmp ule i64 %263, 1792
  br i1 %264, label %265, label %267

265:                                              ; preds = %259
  %266 = call noalias ptr @_emalloc_1792()
  br label %317

267:                                              ; preds = %259
  %268 = load ptr, ptr %3, align 8
  %269 = getelementptr inbounds %struct.smart_string, ptr %268, i32 0, i32 2
  %270 = load i64, ptr %269, align 8
  %271 = add i64 %270, 1
  %272 = icmp ule i64 %271, 2048
  br i1 %272, label %273, label %275

273:                                              ; preds = %267
  %274 = call noalias ptr @_emalloc_2048()
  br label %315

275:                                              ; preds = %267
  %276 = load ptr, ptr %3, align 8
  %277 = getelementptr inbounds %struct.smart_string, ptr %276, i32 0, i32 2
  %278 = load i64, ptr %277, align 8
  %279 = add i64 %278, 1
  %280 = icmp ule i64 %279, 2560
  br i1 %280, label %281, label %283

281:                                              ; preds = %275
  %282 = call noalias ptr @_emalloc_2560()
  br label %313

283:                                              ; preds = %275
  %284 = load ptr, ptr %3, align 8
  %285 = getelementptr inbounds %struct.smart_string, ptr %284, i32 0, i32 2
  %286 = load i64, ptr %285, align 8
  %287 = add i64 %286, 1
  %288 = icmp ule i64 %287, 3072
  br i1 %288, label %289, label %291

289:                                              ; preds = %283
  %290 = call noalias ptr @_emalloc_3072()
  br label %311

291:                                              ; preds = %283
  %292 = load ptr, ptr %3, align 8
  %293 = getelementptr inbounds %struct.smart_string, ptr %292, i32 0, i32 2
  %294 = load i64, ptr %293, align 8
  %295 = add i64 %294, 1
  %296 = icmp ule i64 %295, 2093056
  br i1 %296, label %297, label %303

297:                                              ; preds = %291
  %298 = load ptr, ptr %3, align 8
  %299 = getelementptr inbounds %struct.smart_string, ptr %298, i32 0, i32 2
  %300 = load i64, ptr %299, align 8
  %301 = add i64 %300, 1
  %302 = call noalias ptr @_emalloc_large(i64 noundef %301) #14
  br label %309

303:                                              ; preds = %291
  %304 = load ptr, ptr %3, align 8
  %305 = getelementptr inbounds %struct.smart_string, ptr %304, i32 0, i32 2
  %306 = load i64, ptr %305, align 8
  %307 = add i64 %306, 1
  %308 = call noalias ptr @_emalloc_huge(i64 noundef %307) #14
  br label %309

309:                                              ; preds = %303, %297
  %310 = phi ptr [ %302, %297 ], [ %308, %303 ]
  br label %311

311:                                              ; preds = %309, %289
  %312 = phi ptr [ %290, %289 ], [ %310, %309 ]
  br label %313

313:                                              ; preds = %311, %281
  %314 = phi ptr [ %282, %281 ], [ %312, %311 ]
  br label %315

315:                                              ; preds = %313, %273
  %316 = phi ptr [ %274, %273 ], [ %314, %313 ]
  br label %317

317:                                              ; preds = %315, %265
  %318 = phi ptr [ %266, %265 ], [ %316, %315 ]
  br label %319

319:                                              ; preds = %317, %257
  %320 = phi ptr [ %258, %257 ], [ %318, %317 ]
  br label %321

321:                                              ; preds = %319, %249
  %322 = phi ptr [ %250, %249 ], [ %320, %319 ]
  br label %323

323:                                              ; preds = %321, %241
  %324 = phi ptr [ %242, %241 ], [ %322, %321 ]
  br label %325

325:                                              ; preds = %323, %233
  %326 = phi ptr [ %234, %233 ], [ %324, %323 ]
  br label %327

327:                                              ; preds = %325, %225
  %328 = phi ptr [ %226, %225 ], [ %326, %325 ]
  br label %329

329:                                              ; preds = %327, %217
  %330 = phi ptr [ %218, %217 ], [ %328, %327 ]
  br label %331

331:                                              ; preds = %329, %209
  %332 = phi ptr [ %210, %209 ], [ %330, %329 ]
  br label %333

333:                                              ; preds = %331, %201
  %334 = phi ptr [ %202, %201 ], [ %332, %331 ]
  br label %335

335:                                              ; preds = %333, %193
  %336 = phi ptr [ %194, %193 ], [ %334, %333 ]
  br label %337

337:                                              ; preds = %335, %185
  %338 = phi ptr [ %186, %185 ], [ %336, %335 ]
  br label %339

339:                                              ; preds = %337, %177
  %340 = phi ptr [ %178, %177 ], [ %338, %337 ]
  br label %341

341:                                              ; preds = %339, %169
  %342 = phi ptr [ %170, %169 ], [ %340, %339 ]
  br label %343

343:                                              ; preds = %341, %161
  %344 = phi ptr [ %162, %161 ], [ %342, %341 ]
  br label %345

345:                                              ; preds = %343, %153
  %346 = phi ptr [ %154, %153 ], [ %344, %343 ]
  br label %347

347:                                              ; preds = %345, %145
  %348 = phi ptr [ %146, %145 ], [ %346, %345 ]
  br label %349

349:                                              ; preds = %347, %137
  %350 = phi ptr [ %138, %137 ], [ %348, %347 ]
  br label %351

351:                                              ; preds = %349, %129
  %352 = phi ptr [ %130, %129 ], [ %350, %349 ]
  br label %353

353:                                              ; preds = %351, %121
  %354 = phi ptr [ %122, %121 ], [ %352, %351 ]
  br label %355

355:                                              ; preds = %353, %113
  %356 = phi ptr [ %114, %113 ], [ %354, %353 ]
  br label %357

357:                                              ; preds = %355, %105
  %358 = phi ptr [ %106, %105 ], [ %356, %355 ]
  br label %359

359:                                              ; preds = %357, %97
  %360 = phi ptr [ %98, %97 ], [ %358, %357 ]
  br label %361

361:                                              ; preds = %359, %89
  %362 = phi ptr [ %90, %89 ], [ %360, %359 ]
  br label %363

363:                                              ; preds = %361, %81
  %364 = phi ptr [ %82, %81 ], [ %362, %361 ]
  br label %365

365:                                              ; preds = %363, %73
  %366 = phi ptr [ %74, %73 ], [ %364, %363 ]
  br label %367

367:                                              ; preds = %365, %65
  %368 = phi ptr [ %66, %65 ], [ %366, %365 ]
  br label %369

369:                                              ; preds = %367, %57
  %370 = phi ptr [ %58, %57 ], [ %368, %367 ]
  br label %377

371:                                              ; preds = %45
  %372 = load ptr, ptr %3, align 8
  %373 = getelementptr inbounds %struct.smart_string, ptr %372, i32 0, i32 2
  %374 = load i64, ptr %373, align 8
  %375 = add i64 %374, 1
  %376 = call noalias ptr @_emalloc(i64 noundef %375) #14
  br label %377

377:                                              ; preds = %371, %369
  %378 = phi ptr [ %370, %369 ], [ %376, %371 ]
  %379 = load ptr, ptr %3, align 8
  %380 = getelementptr inbounds %struct.smart_string, ptr %379, i32 0, i32 0
  store ptr %378, ptr %380, align 8
  br label %381

381:                                              ; preds = %377, %37
  br label %382

382:                                              ; preds = %381, %14
  br label %422

383:                                              ; preds = %2
  %384 = load i64, ptr %4, align 8
  %385 = load ptr, ptr %3, align 8
  %386 = getelementptr inbounds %struct.smart_string, ptr %385, i32 0, i32 1
  %387 = load i64, ptr %386, align 8
  %388 = sub i64 -1, %387
  %389 = icmp ugt i64 %384, %388
  %390 = xor i1 %389, true
  %391 = xor i1 %390, true
  %392 = zext i1 %391 to i32
  %393 = sext i32 %392 to i64
  %394 = icmp ne i64 %393, 0
  br i1 %394, label %395, label %396

395:                                              ; preds = %383
  call void (i32, ptr, ...) @zend_error_noreturn(i32 noundef 1, ptr noundef @.str.1) #15
  unreachable

396:                                              ; preds = %383
  %397 = load ptr, ptr %3, align 8
  %398 = getelementptr inbounds %struct.smart_string, ptr %397, i32 0, i32 1
  %399 = load i64, ptr %398, align 8
  %400 = load i64, ptr %4, align 8
  %401 = add i64 %400, %399
  store i64 %401, ptr %4, align 8
  %402 = load i64, ptr %4, align 8
  %403 = add i64 %402, 1
  %404 = add i64 %403, 4095
  %405 = and i64 %404, -4096
  %406 = sub i64 %405, 1
  %407 = load ptr, ptr %3, align 8
  %408 = getelementptr inbounds %struct.smart_string, ptr %407, i32 0, i32 2
  store i64 %406, ptr %408, align 8
  %409 = load ptr, ptr %3, align 8
  %410 = getelementptr inbounds %struct.smart_string, ptr %409, i32 0, i32 0
  %411 = load ptr, ptr %410, align 8
  %412 = load ptr, ptr %3, align 8
  %413 = getelementptr inbounds %struct.smart_string, ptr %412, i32 0, i32 2
  %414 = load i64, ptr %413, align 8
  %415 = add i64 %414, 1
  %416 = load ptr, ptr %3, align 8
  %417 = getelementptr inbounds %struct.smart_string, ptr %416, i32 0, i32 1
  %418 = load i64, ptr %417, align 8
  %419 = call ptr @_erealloc2(ptr noundef %411, i64 noundef %415, i64 noundef %418) #12
  %420 = load ptr, ptr %3, align 8
  %421 = getelementptr inbounds %struct.smart_string, ptr %420, i32 0, i32 0
  store ptr %419, ptr %421, align 8
  br label %422

422:                                              ; preds = %396, %382
  ret void
}