; Function Attrs: nounwind uwtable
define void @_smart_string_alloc(ptr nocapture noundef %0, i64 noundef %1) local_unnamed_addr #0 {
  %3 = load ptr, ptr %0, align 8
  %.not = icmp eq ptr %3, null
  %4 = getelementptr inbounds i8, ptr %0, i64 8
  br i1 %.not, label %5, label %20

5:                                                ; preds = %2
  store i64 0, ptr %4, align 8
  %6 = icmp ult i64 %1, 256
  br i1 %6, label %7, label %10

7:                                                ; preds = %5
  %8 = getelementptr inbounds i8, ptr %0, i64 16
  store i64 255, ptr %8, align 8
  %9 = tail call noalias ptr @_emalloc_256() #12
  br label %32

10:                                               ; preds = %5
  %11 = and i64 %1, -4096
  %12 = add i64 %11, 4096
  %13 = or i64 %1, 4095
  %14 = getelementptr inbounds i8, ptr %0, i64 16
  store i64 %13, ptr %14, align 8
  %15 = icmp ult i64 %13, 2097151
  br i1 %15, label %16, label %18

16:                                               ; preds = %10
  %17 = tail call noalias ptr @_emalloc_large(i64 noundef %12) #10
  br label %32

18:                                               ; preds = %10
  %19 = tail call noalias ptr @_emalloc(i64 noundef %12) #10
  br label %32

20:                                               ; preds = %2
  %21 = load i64, ptr %4, align 8
  %22 = xor i64 %21, -1
  %23 = icmp ult i64 %22, %1
  br i1 %23, label %24, label %25

24:                                               ; preds = %20
  tail call void (i32, ptr, ...) @zend_error_noreturn(i32 noundef 1, ptr noundef nonnull @.str.1) #14
  unreachable

25:                                               ; preds = %20
  %26 = add i64 %21, %1
  %27 = and i64 %26, -4096
  %28 = add i64 %27, 4096
  %29 = or i64 %26, 4095
  %30 = getelementptr inbounds i8, ptr %0, i64 16
  store i64 %29, ptr %30, align 8
  %31 = tail call ptr @_erealloc2(ptr noundef nonnull %3, i64 noundef %28, i64 noundef %21) #11
  br label %32

32:                                               ; preds = %18, %7, %16, %25
  %.sink = phi ptr [ %9, %7 ], [ %17, %16 ], [ %31, %25 ], [ %19, %18 ]
  store ptr %.sink, ptr %0, align 8
  ret void
}